target datalayout = "e-m:e-p270:32:32-p271:32:32-p272:64:64-i64:64-i128:128-f80:128-n8:16:32:64-S128"
target triple = "x86_64-pc-linux-gnu"

%struct.quic_tserver_args_st = type { ptr, ptr, ptr, ptr, ptr, ptr, ptr, ptr, i64 }
%struct.quic_tserver_st = type { %struct.quic_tserver_args_st, ptr, ptr, ptr, ptr, ptr, ptr, ptr, i8 }
%struct.OSSL_TIME = type { i64 }
%struct.quic_stream_st = type { %struct.quic_stream_list_node_st, %struct.quic_stream_list_node_st, %struct.quic_stream_list_node_st, ptr, i64, i64, i64, i64, i64, i64, i64, ptr, ptr, %struct.quic_txfc_st, %struct.quic_rxfc_st, i64 }
%struct.quic_stream_list_node_st = type { ptr, ptr }
%struct.quic_txfc_st = type { ptr, i64, i64, i8 }
%struct.quic_rxfc_st = type { i64, i64, i64, i64, i64, i64, i64, %struct.OSSL_TIME, ptr, ptr, ptr, i8, i8, i8, i8 }

; Function Attrs: inlinehint nounwind uwtable
define internal i32 @ossl_quic_stream_has_recv_buffer(ptr noundef %0) #5 {
  %2 = alloca i32, align 4
  %3 = alloca ptr, align 8
  store ptr %0, ptr %3, align 8, !tbaa !80
  %4 = load ptr, ptr %3, align 8, !tbaa !80
  %5 = getelementptr inbounds nuw %struct.quic_stream_st, ptr %4, i32 0, i32 15
  %6 = load i64, ptr %5, align 8
  %7 = lshr i64 %6, 16
  %8 = and i64 %7, 255
  %9 = trunc i64 %8 to i32
  switch i32 %9, label %11 [
    i32 1, label %10
    i32 2, label %10
    i32 3, label %10
  ]

10:                                               ; preds = %1, %1, %1
  store i32 1, ptr %2, align 4
  br label %12

11:                                               ; preds = %1
  store i32 0, ptr %2, align 4
  br label %12

12:                                               ; preds = %11, %10
  %13 = load i32, ptr %2, align 4
  ret i32 %13
}

; Function Attrs: nounwind uwtable
define i32 @ossl_quic_tserver_has_read_ended(ptr noundef %0, i64 noundef %1) #0 {
  %3 = alloca i32, align 4
  %4 = alloca ptr, align 8
  %5 = alloca i64, align 8
  %6 = alloca ptr, align 8
  %7 = alloca [1 x i8], align 1
  %8 = alloca i64, align 8
  %9 = alloca i32, align 4
  %10 = alloca i32, align 4
  store ptr %0, ptr %4, align 8, !tbaa !10
  store i64 %1, ptr %5, align 8, !tbaa !26
  call void @llvm.lifetime.start.p0(i64 8, ptr %6) #6
  call void @llvm.lifetime.start.p0(i64 1, ptr %7) #6
  call void @llvm.lifetime.start.p0(i64 8, ptr %8) #6
  store i64 0, ptr %8, align 8, !tbaa !26
  call void @llvm.lifetime.start.p0(i64 4, ptr %9) #6
  store i32 0, ptr %9, align 4, !tbaa !75
  %11 = load ptr, ptr %4, align 8, !tbaa !10
  %12 = getelementptr inbounds nuw %struct.quic_tserver_st, ptr %11, i32 0, i32 4
  %13 = load ptr, ptr %12, align 8, !tbaa !52
  %14 = call ptr @ossl_quic_channel_get_qsm(ptr noundef %13)
  %15 = load i64, ptr %5, align 8, !tbaa !26
  %16 = call ptr @ossl_quic_stream_map_get_by_id(ptr noundef %14, i64 noundef %15)
  store ptr %16, ptr %6, align 8, !tbaa !80
  %17 = load ptr, ptr %6, align 8, !tbaa !80
  %18 = icmp eq ptr %17, null
  br i1 %18, label %19, label %20

19:                                               ; preds = %2
  store i32 0, ptr %3, align 4
  store i32 1, ptr %10, align 4
  br label %69

20:                                               ; preds = %2
  %21 = load ptr, ptr %6, align 8, !tbaa !80
  %22 = getelementptr inbounds nuw %struct.quic_stream_st, ptr %21, i32 0, i32 15
  %23 = load i64, ptr %22, align 8
  %24 = lshr i64 %23, 16
  %25 = and i64 %24, 255
  %26 = trunc i64 %25 to i32
  %27 = icmp eq i32 %26, 4
  br i1 %27, label %28, label %29

28:                                               ; preds = %20
  store i32 1, ptr %3, align 4
  store i32 1, ptr %10, align 4
  br label %69

29:                                               ; preds = %20
  %30 = load ptr, ptr %6, align 8, !tbaa !80
  %31 = call i32 @ossl_quic_stream_has_recv_buffer(ptr noundef %30)
  %32 = icmp ne i32 %31, 0
  br i1 %32, label %34, label %33

33:                                               ; preds = %29
  store i32 0, ptr %3, align 4
  store i32 1, ptr %10, align 4
  br label %69

34:                                               ; preds = %29
  %35 = load ptr, ptr %6, align 8, !tbaa !80
  %36 = getelementptr inbounds nuw %struct.quic_stream_st, ptr %35, i32 0, i32 12
  %37 = load ptr, ptr %36, align 8, !tbaa !82
  %38 = getelementptr inbounds [1 x i8], ptr %7, i64 0, i64 0
  %39 = call i32 @ossl_quic_rstream_peek(ptr noundef %37, ptr noundef %38, i64 noundef 1, ptr noundef %8, ptr noundef %9)
  %40 = icmp ne i32 %39, 0
  br i1 %40, label %42, label %41

41:                                               ; preds = %34
  store i32 0, ptr %3, align 4
  store i32 1, ptr %10, align 4
  br label %69

42:                                               ; preds = %34
  %43 = load i32, ptr %9, align 4, !tbaa !75
  %44 = icmp ne i32 %43, 0
  br i1 %44, label %45, label %68

45:                                               ; preds = %42
  %46 = load i64, ptr %8, align 8, !tbaa !26
  %47 = icmp eq i64 %46, 0
  br i1 %47, label %48, label %68

48:                                               ; preds = %45
  %49 = load ptr, ptr %6, align 8, !tbaa !80
  %50 = getelementptr inbounds nuw %struct.quic_stream_st, ptr %49, i32 0, i32 12
  %51 = load ptr, ptr %50, align 8, !tbaa !82
  %52 = getelementptr inbounds [1 x i8], ptr %7, i64 0, i64 0
  %53 = call i32 @ossl_quic_rstream_read(ptr noundef %51, ptr noundef %52, i64 noundef 1, ptr noundef %8, ptr noundef %9)
  %54 = icmp ne i32 %53, 0
  br i1 %54, label %56, label %55

55:                                               ; preds = %48
  store i32 0, ptr %3, align 4
  store i32 1, ptr %10, align 4
  br label %69

56:                                               ; preds = %48
  %57 = load ptr, ptr %4, align 8, !tbaa !10
  %58 = getelementptr inbounds nuw %struct.quic_tserver_st, ptr %57, i32 0, i32 4
  %59 = load ptr, ptr %58, align 8, !tbaa !52
  %60 = call ptr @ossl_quic_channel_get_qsm(ptr noundef %59)
  %61 = load ptr, ptr %6, align 8, !tbaa !80
  %62 = call i32 @ossl_quic_stream_map_notify_totally_read(ptr noundef %60, ptr noundef %61)
  %63 = load ptr, ptr %4, align 8, !tbaa !10
  %64 = getelementptr inbounds nuw %struct.quic_tserver_st, ptr %63, i32 0, i32 4
  %65 = load ptr, ptr %64, align 8, !tbaa !52
  %66 = call ptr @ossl_quic_channel_get_qsm(ptr noundef %65)
  %67 = load ptr, ptr %6, align 8, !tbaa !80
  call void @ossl_quic_stream_map_update_state(ptr noundef %66, ptr noundef %67)
  store i32 1, ptr %3, align 4
  store i32 1, ptr %10, align 4
  br label %69

68:                                               ; preds = %45, %42
  store i32 0, ptr %3, align 4
  store i32 1, ptr %10, align 4
  br label %69

69:                                               ; preds = %68, %56, %55, %41, %33, %28, %19
  call void @llvm.lifetime.end.p0(i64 4, ptr %9) #6
  call void @llvm.lifetime.end.p0(i64 8, ptr %8) #6
  call void @llvm.lifetime.end.p0(i64 1, ptr %7) #6
  call void @llvm.lifetime.end.p0(i64 8, ptr %6) #6
  %70 = load i32, ptr %3, align 4
  ret i32 %70
}