; Function Attrs: nounwind uwtable
define range(i32 0, 2) i32 @ossl_quic_tserver_has_read_ended(ptr noundef readonly captures(none) %0, i64 noundef %1) local_unnamed_addr #0 {
  %3 = alloca [1 x i8], align 1
  %4 = alloca i64, align 8
  %5 = alloca i32, align 4
  call void @llvm.lifetime.start.p0(i64 1, ptr nonnull %3) #6
  call void @llvm.lifetime.start.p0(i64 8, ptr nonnull %4) #6
  store i64 0, ptr %4, align 8, !tbaa !20
  call void @llvm.lifetime.start.p0(i64 4, ptr nonnull %5) #6
  store i32 0, ptr %5, align 4, !tbaa !68
  %6 = getelementptr inbounds nuw i8, ptr %0, i64 96
  %7 = load ptr, ptr %6, align 8, !tbaa !46
  %8 = tail call ptr @ossl_quic_channel_get_qsm(ptr noundef %7) #6
  %9 = tail call ptr @ossl_quic_stream_map_get_by_id(ptr noundef %8, i64 noundef %1) #6
  %10 = icmp eq ptr %9, null
  br i1 %10, label %37, label %11

11:                                               ; preds = %2
  %12 = getelementptr inbounds nuw i8, ptr %9, i64 256
  %13 = load i64, ptr %12, align 8
  %14 = and i64 %13, 16711680
  %15 = icmp eq i64 %14, 262144
  br i1 %15, label %37, label %16

16:                                               ; preds = %11
  %17 = lshr i64 %13, 16
  %trunc.i = trunc i64 %17 to i8
  %18 = add i8 %trunc.i, -4
  %switch.i = icmp ult i8 %18, -3
  br i1 %switch.i, label %37, label %19

19:                                               ; preds = %16
  %20 = getelementptr inbounds nuw i8, ptr %9, i64 120
  %21 = load ptr, ptr %20, align 8, !tbaa !69
  %22 = call i32 @ossl_quic_rstream_peek(ptr noundef %21, ptr noundef nonnull %3, i64 noundef 1, ptr noundef nonnull %4, ptr noundef nonnull %5) #6
  %.not13 = icmp eq i32 %22, 0
  br i1 %.not13, label %37, label %23

23:                                               ; preds = %19
  %24 = load i32, ptr %5, align 4, !tbaa !68
  %25 = icmp ne i32 %24, 0
  %26 = load i64, ptr %4, align 8
  %27 = icmp eq i64 %26, 0
  %or.cond = select i1 %25, i1 %27, i1 false
  br i1 %or.cond, label %28, label %37

28:                                               ; preds = %23
  %29 = load ptr, ptr %20, align 8, !tbaa !69
  %30 = call i32 @ossl_quic_rstream_read(ptr noundef %29, ptr noundef nonnull %3, i64 noundef 1, ptr noundef nonnull %4, ptr noundef nonnull %5) #6
  %.not14 = icmp eq i32 %30, 0
  br i1 %.not14, label %37, label %31

31:                                               ; preds = %28
  %32 = load ptr, ptr %6, align 8, !tbaa !46
  %33 = call ptr @ossl_quic_channel_get_qsm(ptr noundef %32) #6
  %34 = call i32 @ossl_quic_stream_map_notify_totally_read(ptr noundef %33, ptr noundef nonnull %9) #6
  %35 = load ptr, ptr %6, align 8, !tbaa !46
  %36 = call ptr @ossl_quic_channel_get_qsm(ptr noundef %35) #6
  call void @ossl_quic_stream_map_update_state(ptr noundef %36, ptr noundef nonnull %9) #6
  br label %37

37:                                               ; preds = %23, %28, %19, %16, %11, %2, %31
  %.0 = phi i32 [ 1, %31 ], [ 0, %2 ], [ 1, %11 ], [ 0, %16 ], [ 0, %19 ], [ 0, %28 ], [ 0, %23 ]
  call void @llvm.lifetime.end.p0(i64 4, ptr nonnull %5) #6
  call void @llvm.lifetime.end.p0(i64 8, ptr nonnull %4) #6
  call void @llvm.lifetime.end.p0(i64 1, ptr nonnull %3) #6
  ret i32 %.0
}